; ModuleID = '15/236.c'
source_filename = "15/236.c"
target datalayout = "e-m:e-p270:32:32-p271:32:32-p272:64:64-i64:64-f80:128-n8:16:32:64-S128"
target triple = "x86_64-pc-linux-gnu"

@.str = private unnamed_addr constant [3 x i8] c"%d\00", align 1
@.str.1 = private unnamed_addr constant [4 x i8] c"%d\0A\00", align 1

; Function Attrs: noinline nounwind uwtable
define dso_local i32 @main() #0 {
  %1 = alloca i32, align 4
  %2 = alloca i32, align 4
  %3 = alloca i32, align 4
  %4 = alloca i32, align 4
  %5 = alloca i32, align 4
  %6 = alloca i32, align 4
  %7 = alloca i32, align 4
  %8 = alloca i32, align 4
  store i32 0, i32* %1, align 4
  %9 = call i32 (i8*, ...) @__isoc99_scanf(i8* getelementptr inbounds ([3 x i8], [3 x i8]* @.str, i64 0, i64 0), i32* %2)
  store i32 0, i32* %4, align 4
  store i32 0, i32* %5, align 4
  store i32 1, i32* %6, align 4
  store i32 1, i32* %3, align 4
  br label %10

10:                                               ; preds = %28, %0
  %11 = load i32, i32* %3, align 4
  %12 = load i32, i32* %2, align 4
  %13 = load i32, i32* %2, align 4
  %14 = mul nsw i32 %12, %13
  %15 = icmp sle i32 %11, %14
  br i1 %15, label %16, label %31

16:                                               ; preds = %10
  %17 = call i32 (i8*, ...) @__isoc99_scanf(i8* getelementptr inbounds ([3 x i8], [3 x i8]* @.str, i64 0, i64 0), i32* %7)
  %18 = load i32, i32* %7, align 4
  %19 = icmp eq i32 %18, 255
  br i1 %19, label %20, label %23

20:                                               ; preds = %16
  %21 = load i32, i32* %4, align 4
  %22 = add nsw i32 %21, 1
  store i32 %22, i32* %4, align 4
  br label %23

23:                                               ; preds = %20, %16
  %24 = load i32, i32* %7, align 4
  %25 = icmp eq i32 %24, 0
  br i1 %25, label %26, label %27

26:                                               ; preds = %23
  br label %31

27:                                               ; preds = %23
  br label %28

28:                                               ; preds = %27
  %29 = load i32, i32* %3, align 4
  %30 = add nsw i32 %29, 1
  store i32 %30, i32* %3, align 4
  br label %10

31:                                               ; preds = %26, %10
  store i32 1, i32* %3, align 4
  br label %32

32:                                               ; preds = %55, %31
  %33 = load i32, i32* %3, align 4
  %34 = load i32, i32* %2, align 4
  %35 = load i32, i32* %2, align 4
  %36 = mul nsw i32 %34, %35
  %37 = load i32, i32* %4, align 4
  %38 = sub nsw i32 %36, %37
  %39 = sub nsw i32 %38, 1
  %40 = icmp sle i32 %33, %39
  br i1 %40, label %41, label %58

41:                                               ; preds = %32
  %42 = call i32 (i8*, ...) @__isoc99_scanf(i8* getelementptr inbounds ([3 x i8], [3 x i8]* @.str, i64 0, i64 0), i32* %7)
  %43 = load i32, i32* %7, align 4
  %44 = icmp eq i32 %43, 255
  br i1 %44, label %45, label %48

45:                                               ; preds = %41
  %46 = load i32, i32* %5, align 4
  %47 = add nsw i32 %46, 1
  store i32 %47, i32* %5, align 4
  br label %48

48:                                               ; preds = %45, %41
  %49 = load i32, i32* %7, align 4
  %50 = icmp eq i32 %49, 0
  br i1 %50, label %51, label %54

51:                                               ; preds = %48
  store i32 0, i32* %5, align 4
  %52 = load i32, i32* %6, align 4
  %53 = add nsw i32 %52, 1
  store i32 %53, i32* %6, align 4
  br label %54

54:                                               ; preds = %51, %48
  br label %55

55:                                               ; preds = %54
  %56 = load i32, i32* %3, align 4
  %57 = add nsw i32 %56, 1
  store i32 %57, i32* %3, align 4
  br label %32

58:                                               ; preds = %32
  %59 = load i32, i32* %2, align 4
  %60 = load i32, i32* %4, align 4
  %61 = load i32, i32* %2, align 4
  %62 = srem i32 %60, %61
  %63 = sub nsw i32 %59, %62
  %64 = load i32, i32* %5, align 4
  %65 = load i32, i32* %2, align 4
  %66 = srem i32 %64, %65
  %67 = sub nsw i32 %63, %66
  %68 = sub nsw i32 %67, 2
  %69 = load i32, i32* %6, align 4
  %70 = load i32, i32* %2, align 4
  %71 = load i32, i32* %4, align 4
  %72 = load i32, i32* %2, align 4
  %73 = srem i32 %71, %72
  %74 = sub nsw i32 %70, %73
  %75 = load i32, i32* %5, align 4
  %76 = load i32, i32* %2, align 4
  %77 = srem i32 %75, %76
  %78 = sub nsw i32 %74, %77
  %79 = mul nsw i32 2, %78
  %80 = sub nsw i32 %69, %79
  %81 = mul nsw i32 %68, %80
  %82 = sdiv i32 %81, 2
  store i32 %82, i32* %8, align 4
  %83 = load i32, i32* %8, align 4
  %84 = call i32 (i8*, ...) @printf(i8* getelementptr inbounds ([4 x i8], [4 x i8]* @.str.1, i64 0, i64 0), i32 %83)
  ret i32 0
}

declare dso_local i32 @__isoc99_scanf(i8*, ...) #1

declare dso_local i32 @printf(i8*, ...) #1


!llvm.module.flags = !{!0}
!llvm.ident = !{!1}

!0 = !{i32 1, !"wchar_size", i32 4}
!1 = !{!"clang version 10.0.0-4ubuntu1 "}
